#include <math.h>
#include <stdio.h>
#include <stdlib.h>
#include <string.h>

int main()
{
	int n,k,a[1000],b[1001],i,q;
	scanf("%d%d",&n,&k);
	for(i=0;i<n;i++){
		scanf("%d",&a[i]);
		b[i+1]=a[i];
	}
	for(i=0;i<n;i++)
	{
		for(q=1;q<n+1;q++)
		{
			if(a[i]+b[q]==k){
				printf("yes\n");
				if(q==n){
					q--;
				}
				break;
			}
		}
		if(q<n)
			break;
		if(i==n-1)
		{
			printf("no\n");
		}
		
	}
}
